target datalayout = "e-m:e-p270:32:32-p271:32:32-p272:64:64-i64:64-i128:128-f80:128-n8:16:32:64-S128"
target triple = "x86_64-pc-linux-gnu"

%struct._timelib_time = type { i64, i64, i64, i64, i64, i64, i64, i32, ptr, ptr, i32, %struct._timelib_rel_time, i64, i32, i32, i32, i32, i32, i32, i32, i32, i32 }
%struct._timelib_rel_time = type { i64, i64, i64, i64, i64, i64, i64, i32, i32, i32, i32, i64, %struct.anon, i32, i32 }
%struct.anon = type { i32, i64 }

; Function Attrs: nounwind uwtable
define hidden void @timelib_time_tz_abbr_update(ptr noundef %0, ptr noundef %1) #0 {
  %3 = alloca ptr, align 8
  %4 = alloca ptr, align 8
  %5 = alloca i32, align 4
  %6 = alloca i64, align 8
  store ptr %0, ptr %3, align 8
  store ptr %1, ptr %4, align 8
  %7 = load ptr, ptr %4, align 8
  %8 = call i64 @strlen(ptr noundef %7) #7
  store i64 %8, ptr %6, align 8
  %9 = load ptr, ptr %3, align 8
  %10 = getelementptr inbounds %struct._timelib_time, ptr %9, i32 0, i32 8
  %11 = load ptr, ptr %10, align 8
  %12 = icmp ne ptr %11, null
  br i1 %12, label %13, label %19

13:                                               ; preds = %2
  %14 = load ptr, ptr %3, align 8
  %15 = getelementptr inbounds %struct._timelib_time, ptr %14, i32 0, i32 8
  %16 = load ptr, ptr %15, align 8
  call void @_efree(ptr noundef %16)
  %17 = load ptr, ptr %3, align 8
  %18 = getelementptr inbounds %struct._timelib_time, ptr %17, i32 0, i32 8
  store ptr null, ptr %18, align 8
  br label %19

19:                                               ; preds = %13, %2
  %20 = load ptr, ptr %4, align 8
  %21 = call noalias ptr @_estrdup(ptr noundef %20)
  %22 = load ptr, ptr %3, align 8
  %23 = getelementptr inbounds %struct._timelib_time, ptr %22, i32 0, i32 8
  store ptr %21, ptr %23, align 8
  store i32 0, ptr %5, align 4
  br label %24

24:                                               ; preds = %44, %19
  %25 = load i32, ptr %5, align 4
  %26 = zext i32 %25 to i64
  %27 = load i64, ptr %6, align 8
  %28 = icmp ult i64 %26, %27
  br i1 %28, label %29, label %47

29:                                               ; preds = %24
  %30 = load ptr, ptr %4, align 8
  %31 = load i32, ptr %5, align 4
  %32 = zext i32 %31 to i64
  %33 = getelementptr inbounds i8, ptr %30, i64 %32
  %34 = load i8, ptr %33, align 1
  %35 = sext i8 %34 to i32
  %36 = call i32 @toupper(i32 noundef %35) #7
  %37 = trunc i32 %36 to i8
  %38 = load ptr, ptr %3, align 8
  %39 = getelementptr inbounds %struct._timelib_time, ptr %38, i32 0, i32 8
  %40 = load ptr, ptr %39, align 8
  %41 = load i32, ptr %5, align 4
  %42 = zext i32 %41 to i64
  %43 = getelementptr inbounds i8, ptr %40, i64 %42
  store i8 %37, ptr %43, align 1
  br label %44

44:                                               ; preds = %29
  %45 = load i32, ptr %5, align 4
  %46 = add i32 %45, 1
  store i32 %46, ptr %5, align 4
  br label %24

47:                                               ; preds = %24
  ret void
}