; Function Attrs: nounwind uwtable
define hidden void @timelib_time_tz_abbr_update(ptr nocapture noundef %0, ptr noundef %1) local_unnamed_addr #1 {
  %3 = tail call i64 @strlen(ptr noundef nonnull dereferenceable(1) %1) #19
  %4 = getelementptr inbounds i8, ptr %0, i64 64
  %5 = load ptr, ptr %4, align 8
  %.not = icmp eq ptr %5, null
  br i1 %.not, label %7, label %6

6:                                                ; preds = %2
  tail call void @_efree(ptr noundef nonnull %5) #18
  store ptr null, ptr %4, align 8
  br label %7

7:                                                ; preds = %6, %2
  %8 = tail call noalias ptr @_estrdup(ptr noundef %1) #18
  store ptr %8, ptr %4, align 8
  %.not15 = icmp eq i64 %3, 0
  br i1 %.not15, label %._crit_edge, label %.lr.ph

.lr.ph:                                           ; preds = %7, %.lr.ph
  %9 = phi i64 [ %18, %.lr.ph ], [ 0, %7 ]
  %.014 = phi i32 [ %17, %.lr.ph ], [ 0, %7 ]
  %10 = getelementptr inbounds i8, ptr %1, i64 %9
  %11 = load i8, ptr %10, align 1
  %12 = sext i8 %11 to i32
  %13 = tail call i32 @toupper(i32 noundef %12) #19
  %14 = trunc i32 %13 to i8
  %15 = load ptr, ptr %4, align 8
  %16 = getelementptr inbounds i8, ptr %15, i64 %9
  store i8 %14, ptr %16, align 1
  %17 = add i32 %.014, 1
  %18 = zext i32 %17 to i64
  %19 = icmp ugt i64 %3, %18
  br i1 %19, label %.lr.ph, label %._crit_edge

._crit_edge:                                      ; preds = %.lr.ph, %7
  ret void
}